target datalayout = "e-m:e-p270:32:32-p271:32:32-p272:64:64-i64:64-i128:128-f80:128-n8:16:32:64-S128"
target triple = "x86_64-pc-linux-gnu"

%struct.job_array_resp_msg_t = type { i32, ptr, ptr, ptr }

@exit_code = external global i32, align 4
@quiet_flag = external global i32, align 4
@stderr = external global ptr, align 8
@.str.5 = private unnamed_addr constant [15 x i8] c"%s for job %s\0A\00", align 1
@.str.6 = private unnamed_addr constant [8 x i8] c"%s: %s\0A\00", align 1

; Function Attrs: nounwind uwtable
define dso_local void @scontrol_requeue_hold(i32 noundef %0, ptr noundef %1) #0 {
  %3 = alloca i32, align 4
  %4 = alloca ptr, align 8
  %5 = alloca i32, align 4
  %6 = alloca i32, align 4
  %7 = alloca ptr, align 8
  %8 = alloca ptr, align 8
  store i32 %0, ptr %3, align 4
  store ptr %1, ptr %4, align 8
  call void @llvm.lifetime.start.p0(i64 4, ptr %5) #8
  call void @llvm.lifetime.start.p0(i64 4, ptr %6) #8
  call void @llvm.lifetime.start.p0(i64 8, ptr %7) #8
  call void @llvm.lifetime.start.p0(i64 8, ptr %8) #8
  store ptr null, ptr %8, align 8
  %9 = load i32, ptr %3, align 4
  %10 = zext i32 %9 to i64
  %11 = or i64 %10, 2048
  %12 = trunc i64 %11 to i32
  store i32 %12, ptr %3, align 4
  %13 = load ptr, ptr %4, align 8
  %14 = call zeroext i1 @_is_job_id(ptr noundef %13)
  br i1 %14, label %15, label %93

15:                                               ; preds = %2
  %16 = call ptr @_next_job_id()
  store ptr %16, ptr %7, align 8
  br label %17

17:                                               ; preds = %90, %15
  %18 = load ptr, ptr %7, align 8
  %19 = icmp ne ptr %18, null
  br i1 %19, label %20, label %92

20:                                               ; preds = %17
  %21 = load ptr, ptr %7, align 8
  %22 = load i32, ptr %3, align 4
  %23 = call i32 @slurm_requeue2(ptr noundef %21, i32 noundef %22, ptr noundef %8)
  store i32 %23, ptr %5, align 4
  %24 = load i32, ptr %5, align 4
  %25 = icmp ne i32 %24, 0
  br i1 %25, label %26, label %37

26:                                               ; preds = %20
  store i32 1, ptr @exit_code, align 4
  %27 = load i32, ptr @quiet_flag, align 4
  %28 = icmp ne i32 %27, 1
  br i1 %28, label %29, label %36

29:                                               ; preds = %26
  %30 = load ptr, ptr @stderr, align 8
  %31 = call ptr @__errno_location() #9
  %32 = load i32, ptr %31, align 4
  %33 = call ptr @slurm_strerror(i32 noundef %32)
  %34 = load ptr, ptr %7, align 8
  %35 = call i32 (ptr, ptr, ...) @fprintf(ptr noundef %30, ptr noundef @.str.5, ptr noundef %33, ptr noundef %34) #8
  br label %36

36:                                               ; preds = %29, %26
  br label %90

37:                                               ; preds = %20
  %38 = load ptr, ptr %8, align 8
  %39 = icmp ne ptr %38, null
  br i1 %39, label %40, label %89

40:                                               ; preds = %37
  store i32 0, ptr %6, align 4
  br label %41

41:                                               ; preds = %84, %40
  %42 = load i32, ptr %6, align 4
  %43 = load ptr, ptr %8, align 8
  %44 = getelementptr inbounds nuw %struct.job_array_resp_msg_t, ptr %43, i32 0, i32 0
  %45 = load i32, ptr %44, align 8
  %46 = icmp ult i32 %42, %45
  br i1 %46, label %47, label %87

47:                                               ; preds = %41
  %48 = load ptr, ptr %8, align 8
  %49 = getelementptr inbounds nuw %struct.job_array_resp_msg_t, ptr %48, i32 0, i32 2
  %50 = load ptr, ptr %49, align 8
  %51 = load i32, ptr %6, align 4
  %52 = sext i32 %51 to i64
  %53 = getelementptr inbounds i32, ptr %50, i64 %52
  %54 = load i32, ptr %53, align 4
  %55 = icmp eq i32 %54, 0
  br i1 %55, label %56, label %62

56:                                               ; preds = %47
  %57 = load ptr, ptr %8, align 8
  %58 = getelementptr inbounds nuw %struct.job_array_resp_msg_t, ptr %57, i32 0, i32 0
  %59 = load i32, ptr %58, align 8
  %60 = icmp eq i32 %59, 1
  br i1 %60, label %61, label %62

61:                                               ; preds = %56
  br label %84

62:                                               ; preds = %56, %47
  store i32 1, ptr @exit_code, align 4
  %63 = load i32, ptr @quiet_flag, align 4
  %64 = icmp eq i32 %63, 1
  br i1 %64, label %65, label %66

65:                                               ; preds = %62
  br label %84

66:                                               ; preds = %62
  %67 = load ptr, ptr @stderr, align 8
  %68 = load ptr, ptr %8, align 8
  %69 = getelementptr inbounds nuw %struct.job_array_resp_msg_t, ptr %68, i32 0, i32 1
  %70 = load ptr, ptr %69, align 8
  %71 = load i32, ptr %6, align 4
  %72 = sext i32 %71 to i64
  %73 = getelementptr inbounds ptr, ptr %70, i64 %72
  %74 = load ptr, ptr %73, align 8
  %75 = load ptr, ptr %8, align 8
  %76 = getelementptr inbounds nuw %struct.job_array_resp_msg_t, ptr %75, i32 0, i32 2
  %77 = load ptr, ptr %76, align 8
  %78 = load i32, ptr %6, align 4
  %79 = sext i32 %78 to i64
  %80 = getelementptr inbounds i32, ptr %77, i64 %79
  %81 = load i32, ptr %80, align 4
  %82 = call ptr @slurm_strerror(i32 noundef %81)
  %83 = call i32 (ptr, ptr, ...) @fprintf(ptr noundef %67, ptr noundef @.str.6, ptr noundef %74, ptr noundef %82) #8
  br label %84

84:                                               ; preds = %66, %65, %61
  %85 = load i32, ptr %6, align 4
  %86 = add nsw i32 %85, 1
  store i32 %86, ptr %6, align 4
  br label %41, !llvm.loop !22

87:                                               ; preds = %41
  %88 = load ptr, ptr %8, align 8
  call void @slurm_free_job_array_resp(ptr noundef %88)
  store ptr null, ptr %8, align 8
  br label %89

89:                                               ; preds = %87, %37
  br label %90

90:                                               ; preds = %89, %36
  %91 = call ptr @_next_job_id()
  store ptr %91, ptr %7, align 8
  br label %17, !llvm.loop !23

92:                                               ; preds = %17
  br label %105

93:                                               ; preds = %2
  store i32 1, ptr @exit_code, align 4
  store i32 2017, ptr %5, align 4
  %94 = load i32, ptr %5, align 4
  %95 = call ptr @__errno_location() #9
  store i32 %94, ptr %95, align 4
  %96 = load i32, ptr @quiet_flag, align 4
  %97 = icmp ne i32 %96, 1
  br i1 %97, label %98, label %104

98:                                               ; preds = %93
  %99 = load ptr, ptr @stderr, align 8
  %100 = load i32, ptr %5, align 4
  %101 = call ptr @slurm_strerror(i32 noundef %100)
  %102 = load ptr, ptr %4, align 8
  %103 = call i32 (ptr, ptr, ...) @fprintf(ptr noundef %99, ptr noundef @.str.5, ptr noundef %101, ptr noundef %102) #8
  br label %104

104:                                              ; preds = %98, %93
  br label %105

105:                                              ; preds = %104, %92
  call void @llvm.lifetime.end.p0(i64 8, ptr %8) #8
  call void @llvm.lifetime.end.p0(i64 8, ptr %7) #8
  call void @llvm.lifetime.end.p0(i64 4, ptr %6) #8
  call void @llvm.lifetime.end.p0(i64 4, ptr %5) #8
  ret void
}