; Function Attrs: nounwind uwtable
define dso_local void @scontrol_requeue_hold(i32 noundef %0, ptr noundef %1) local_unnamed_addr #0 {
  %3 = alloca ptr, align 8
  call void @llvm.lifetime.start.p0(i64 8, ptr nonnull %3) #13
  store ptr null, ptr %3, align 8
  %4 = or i32 %0, 2048
  %5 = tail call fastcc zeroext i1 @_is_job_id(ptr noundef %1)
  br i1 %5, label %6, label %47

6:                                                ; preds = %2
  %7 = tail call fastcc ptr @_next_job_id()
  %.not1621 = icmp eq ptr %7, null
  br i1 %.not1621, label %.loopexit, label %.lr.ph24

.lr.ph24:                                         ; preds = %6, %45
  %.022 = phi ptr [ %46, %45 ], [ %7, %6 ]
  %8 = call i32 @slurm_requeue2(ptr noundef nonnull %.022, i32 noundef %4, ptr noundef nonnull %3) #13
  %.not17 = icmp eq i32 %8, 0
  br i1 %.not17, label %17, label %9

9:                                                ; preds = %.lr.ph24
  store i32 1, ptr @exit_code, align 4
  %10 = load i32, ptr @quiet_flag, align 4
  %.not19 = icmp eq i32 %10, 1
  br i1 %.not19, label %45, label %11

11:                                               ; preds = %9
  %12 = load ptr, ptr @stderr, align 8
  %13 = tail call ptr @__errno_location() #14
  %14 = load i32, ptr %13, align 4
  %15 = call ptr @slurm_strerror(i32 noundef %14) #13
  %16 = call i32 (ptr, ptr, ...) @fprintf(ptr noundef %12, ptr noundef nonnull @.str.5, ptr noundef %15, ptr noundef nonnull %.022) #15
  br label %45

17:                                               ; preds = %.lr.ph24
  %18 = load ptr, ptr %3, align 8
  %.not18 = icmp eq ptr %18, null
  br i1 %.not18, label %45, label %.preheader

.preheader:                                       ; preds = %17
  %19 = load i32, ptr %18, align 8
  %.not25 = icmp eq i32 %19, 0
  br i1 %.not25, label %._crit_edge, label %.lr.ph

.lr.ph:                                           ; preds = %.preheader, %40
  %20 = phi ptr [ %41, %40 ], [ %18, %.preheader ]
  %indvars.iv = phi i64 [ %indvars.iv.next, %40 ], [ 0, %.preheader ]
  %21 = phi i32 [ %42, %40 ], [ %19, %.preheader ]
  %22 = getelementptr inbounds nuw i8, ptr %20, i64 16
  %23 = load ptr, ptr %22, align 8
  %24 = getelementptr inbounds nuw i32, ptr %23, i64 %indvars.iv
  %25 = load i32, ptr %24, align 4
  %26 = icmp eq i32 %25, 0
  %27 = icmp eq i32 %21, 1
  %or.cond = and i1 %27, %26
  br i1 %or.cond, label %40, label %28

28:                                               ; preds = %.lr.ph
  store i32 1, ptr @exit_code, align 4
  %29 = load i32, ptr @quiet_flag, align 4
  %30 = icmp eq i32 %29, 1
  br i1 %30, label %40, label %31

31:                                               ; preds = %28
  %32 = load ptr, ptr @stderr, align 8
  %33 = getelementptr inbounds nuw i8, ptr %20, i64 8
  %34 = load ptr, ptr %33, align 8
  %35 = getelementptr inbounds nuw ptr, ptr %34, i64 %indvars.iv
  %36 = load ptr, ptr %35, align 8
  %37 = load i32, ptr %24, align 4
  %38 = call ptr @slurm_strerror(i32 noundef %37) #13
  %39 = call i32 (ptr, ptr, ...) @fprintf(ptr noundef %32, ptr noundef nonnull @.str.6, ptr noundef %36, ptr noundef %38) #15
  %.pre = load ptr, ptr %3, align 8
  br label %40

40:                                               ; preds = %.lr.ph, %28, %31
  %41 = phi ptr [ %20, %.lr.ph ], [ %20, %28 ], [ %.pre, %31 ]
  %indvars.iv.next = add nuw nsw i64 %indvars.iv, 1
  %42 = load i32, ptr %41, align 8
  %43 = zext i32 %42 to i64
  %44 = icmp samesign ult i64 %indvars.iv.next, %43
  br i1 %44, label %.lr.ph, label %._crit_edge, !llvm.loop !20

._crit_edge:                                      ; preds = %40, %.preheader
  %.lcssa = phi ptr [ %18, %.preheader ], [ %41, %40 ]
  call void @slurm_free_job_array_resp(ptr noundef nonnull %.lcssa) #13
  store ptr null, ptr %3, align 8
  br label %45

45:                                               ; preds = %17, %._crit_edge, %9, %11
  %46 = call fastcc ptr @_next_job_id()
  %.not16 = icmp eq ptr %46, null
  br i1 %.not16, label %.loopexit, label %.lr.ph24, !llvm.loop !21

47:                                               ; preds = %2
  store i32 1, ptr @exit_code, align 4
  %48 = tail call ptr @__errno_location() #14
  store i32 2017, ptr %48, align 4
  %49 = load i32, ptr @quiet_flag, align 4
  %.not = icmp eq i32 %49, 1
  br i1 %.not, label %.loopexit, label %50

50:                                               ; preds = %47
  %51 = load ptr, ptr @stderr, align 8
  %52 = tail call ptr @slurm_strerror(i32 noundef 2017) #13
  %53 = tail call i32 (ptr, ptr, ...) @fprintf(ptr noundef %51, ptr noundef nonnull @.str.5, ptr noundef %52, ptr noundef %1) #15
  br label %.loopexit

.loopexit:                                        ; preds = %45, %6, %47, %50
  call void @llvm.lifetime.end.p0(i64 8, ptr nonnull %3) #13
  ret void
}